target datalayout = "e-m:e-p270:32:32-p271:32:32-p272:64:64-i64:64-i128:128-f80:128-n8:16:32:64-S128"
target triple = "x86_64-pc-linux-gnu"

%struct.lua_TValue = type { %union.Value, i32 }
%union.Value = type { ptr }
%struct.lua_State = type { ptr, i8, i8, i8, ptr, ptr, ptr, ptr, ptr, ptr, ptr, ptr, ptr, i32, i32, i16, i16, i8, i8, i32, i32, ptr, %struct.lua_TValue, %struct.lua_TValue, ptr, ptr, ptr, i64 }
%struct.CCallS = type { ptr, ptr }

; Function Attrs: nounwind uwtable
define dso_local i32 @lua_cpcall(ptr noundef %0, ptr noundef %1, ptr noundef %2) #0 {
  %4 = alloca ptr, align 8
  %5 = alloca ptr, align 8
  %6 = alloca ptr, align 8
  %7 = alloca %struct.CCallS, align 8
  %8 = alloca i32, align 4
  store ptr %0, ptr %4, align 8, !tbaa !4
  store ptr %1, ptr %5, align 8, !tbaa !34
  store ptr %2, ptr %6, align 8, !tbaa !34
  call void @llvm.lifetime.start.p0(i64 16, ptr %7) #6
  call void @llvm.lifetime.start.p0(i64 4, ptr %8) #6
  %9 = load ptr, ptr %5, align 8, !tbaa !34
  %10 = getelementptr inbounds nuw %struct.CCallS, ptr %7, i32 0, i32 0
  store ptr %9, ptr %10, align 8, !tbaa !70
  %11 = load ptr, ptr %6, align 8, !tbaa !34
  %12 = getelementptr inbounds nuw %struct.CCallS, ptr %7, i32 0, i32 1
  store ptr %11, ptr %12, align 8, !tbaa !72
  %13 = load ptr, ptr %4, align 8, !tbaa !4
  %14 = load ptr, ptr %4, align 8, !tbaa !4
  %15 = getelementptr inbounds nuw %struct.lua_State, ptr %14, i32 0, i32 4
  %16 = load ptr, ptr %15, align 8, !tbaa !11
  %17 = load ptr, ptr %4, align 8, !tbaa !4
  %18 = getelementptr inbounds nuw %struct.lua_State, ptr %17, i32 0, i32 10
  %19 = load ptr, ptr %18, align 8, !tbaa !64
  %20 = ptrtoint ptr %16 to i64
  %21 = ptrtoint ptr %19 to i64
  %22 = sub i64 %20, %21
  %23 = call i32 @luaD_pcall(ptr noundef %13, ptr noundef @f_Ccall, ptr noundef %7, i64 noundef %22, i64 noundef 0)
  store i32 %23, ptr %8, align 4, !tbaa !25
  %24 = load i32, ptr %8, align 4, !tbaa !25
  call void @llvm.lifetime.end.p0(i64 4, ptr %8) #6
  call void @llvm.lifetime.end.p0(i64 16, ptr %7) #6
  ret i32 %24
}