; Function Attrs: nounwind uwtable
define dso_local i32 @lua_cpcall(ptr noundef %0, ptr noundef %1, ptr noundef %2) local_unnamed_addr #2 {
  %4 = alloca %struct.CCallS, align 8
  call void @llvm.lifetime.start.p0(i64 16, ptr nonnull %4) #14
  store ptr %1, ptr %4, align 8, !tbaa !55
  %5 = getelementptr inbounds nuw i8, ptr %4, i64 8
  store ptr %2, ptr %5, align 8, !tbaa !57
  %6 = getelementptr inbounds nuw i8, ptr %0, i64 16
  %7 = load ptr, ptr %6, align 8, !tbaa !4
  %8 = getelementptr inbounds nuw i8, ptr %0, i64 64
  %9 = load ptr, ptr %8, align 8, !tbaa !51
  %10 = ptrtoint ptr %7 to i64
  %11 = ptrtoint ptr %9 to i64
  %12 = sub i64 %10, %11
  %13 = call i32 @luaD_pcall(ptr noundef %0, ptr noundef nonnull @f_Ccall, ptr noundef nonnull %4, i64 noundef %12, i64 noundef 0) #14
  call void @llvm.lifetime.end.p0(i64 16, ptr nonnull %4) #14
  ret i32 %13
}